; Function Attrs: mustprogress uwtable
define dso_local void @_ZN4onnx19TensorProto_SegmentC2ERKS0_(ptr noundef nonnull align 8 dereferenceable(40) initializes((0, 24)) %0, ptr noundef nonnull readonly align 8 captures(none) dereferenceable(40) %1) unnamed_addr #3 align 2 personality ptr @__gxx_personality_v0 {
.noexc:
  %2 = getelementptr inbounds nuw i8, ptr %0, i64 8
  store ptr null, ptr %2, align 8, !tbaa !4
  store ptr getelementptr inbounds nuw inrange(-16, 160) (i8, ptr @_ZTVN4onnx19TensorProto_SegmentE, i64 16), ptr %0, align 8, !tbaa !9
  %3 = getelementptr inbounds nuw i8, ptr %0, i64 16
  %4 = getelementptr inbounds nuw i8, ptr %1, i64 16
  %5 = load i32, ptr %4, align 8, !tbaa !78
  store i32 %5, ptr %3, align 8, !tbaa !78
  %6 = getelementptr inbounds nuw i8, ptr %0, i64 20
  store i32 0, ptr %6, align 4, !tbaa !41
  %7 = getelementptr inbounds nuw i8, ptr %1, i64 8
  %8 = load ptr, ptr %7, align 8, !tbaa !4
  %9 = ptrtoint ptr %8 to i64
  %10 = and i64 %9, 1
  %.not = icmp eq i64 %10, 0
  br i1 %.not, label %_ZN6google8protobuf8internal16InternalMetadata9MergeFromINS0_15UnknownFieldSetEEEvRKS2_.exit, label %_ZN6google8protobuf8internal16InternalMetadata22mutable_unknown_fieldsINS0_15UnknownFieldSetEEEPT_v.exit.i

_ZN6google8protobuf8internal16InternalMetadata22mutable_unknown_fieldsINS0_15UnknownFieldSetEEEPT_v.exit.i: ; preds = %.noexc
  %11 = and i64 %9, -2
  %12 = inttoptr i64 %11 to ptr
  %13 = getelementptr inbounds nuw i8, ptr %12, i64 8
  %14 = tail call noundef ptr @_ZN6google8protobuf8internal16InternalMetadata27mutable_unknown_fields_slowINS0_15UnknownFieldSetEEEPT_v(ptr noundef nonnull align 8 dereferenceable(8) %2)
  tail call void @_ZN6google8protobuf15UnknownFieldSet9MergeFromERKS1_(ptr noundef nonnull align 8 dereferenceable(24) %14, ptr noundef nonnull align 8 dereferenceable(24) %13)
  br label %_ZN6google8protobuf8internal16InternalMetadata9MergeFromINS0_15UnknownFieldSetEEEvRKS2_.exit

_ZN6google8protobuf8internal16InternalMetadata9MergeFromINS0_15UnknownFieldSetEEEvRKS2_.exit: ; preds = %_ZN6google8protobuf8internal16InternalMetadata22mutable_unknown_fieldsINS0_15UnknownFieldSetEEEPT_v.exit.i, %.noexc
  %15 = getelementptr inbounds nuw i8, ptr %0, i64 24
  %16 = getelementptr inbounds nuw i8, ptr %1, i64 24
  tail call void @llvm.memcpy.p0.p0.i64(ptr noundef nonnull align 8 dereferenceable(16) %15, ptr noundef nonnull align 8 dereferenceable(16) %16, i64 16, i1 false)
  ret void
}